target datalayout = "e-m:e-p270:32:32-p271:32:32-p272:64:64-i64:64-i128:128-f80:128-n8:16:32:64-S128"
target triple = "x86_64-pc-linux-gnu"

%struct.FunctionCallInfoBaseData = type { ptr, ptr, ptr, i32, i8, i16, [0 x %struct.NullableDatum] }
%struct.NullableDatum = type { i64, i8 }
%struct.LOCKTAG = type { i32, i32, i32, i16, i8, i8 }

@MyDatabaseId = external global i32, align 4

; Function Attrs: inlinehint nounwind uwtable
define internal i64 @BoolGetDatum(i1 noundef zeroext %0) #3 {
  %2 = alloca i8, align 1
  %3 = zext i1 %0 to i8
  store i8 %3, ptr %2, align 1
  %4 = load i8, ptr %2, align 1, !range !6, !noundef !7
  %5 = trunc i8 %4 to i1
  %6 = select i1 %5, i32 1, i32 0
  %7 = sext i32 %6 to i64
  ret i64 %7
}

; Function Attrs: inlinehint nounwind uwtable
define internal i64 @DatumGetInt64(i64 noundef %0) #3 {
  %2 = alloca i64, align 8
  store i64 %0, ptr %2, align 8
  %3 = load i64, ptr %2, align 8
  ret i64 %3
}

; Function Attrs: nounwind uwtable
define dso_local i64 @pg_try_advisory_xact_lock_int8(ptr noundef %0) #0 {
  %2 = alloca ptr, align 8
  %3 = alloca i64, align 8
  %4 = alloca %struct.LOCKTAG, align 4
  %5 = alloca i32, align 4
  store ptr %0, ptr %2, align 8
  call void @llvm.lifetime.start.p0(i64 8, ptr %3) #5
  %6 = load ptr, ptr %2, align 8
  %7 = getelementptr inbounds nuw %struct.FunctionCallInfoBaseData, ptr %6, i32 0, i32 6
  %8 = getelementptr inbounds [0 x %struct.NullableDatum], ptr %7, i64 0, i64 0
  %9 = getelementptr inbounds nuw %struct.NullableDatum, ptr %8, i32 0, i32 0
  %10 = load i64, ptr %9, align 8
  %11 = call i64 @DatumGetInt64(i64 noundef %10)
  store i64 %11, ptr %3, align 8
  call void @llvm.lifetime.start.p0(i64 16, ptr %4) #5
  call void @llvm.lifetime.start.p0(i64 4, ptr %5) #5
  %12 = load i32, ptr @MyDatabaseId, align 4
  %13 = getelementptr inbounds nuw %struct.LOCKTAG, ptr %4, i32 0, i32 0
  store i32 %12, ptr %13, align 4
  %14 = load i64, ptr %3, align 8
  %15 = ashr i64 %14, 32
  %16 = trunc i64 %15 to i32
  %17 = getelementptr inbounds nuw %struct.LOCKTAG, ptr %4, i32 0, i32 1
  store i32 %16, ptr %17, align 4
  %18 = load i64, ptr %3, align 8
  %19 = trunc i64 %18 to i32
  %20 = getelementptr inbounds nuw %struct.LOCKTAG, ptr %4, i32 0, i32 2
  store i32 %19, ptr %20, align 4
  %21 = getelementptr inbounds nuw %struct.LOCKTAG, ptr %4, i32 0, i32 3
  store i16 1, ptr %21, align 4
  %22 = getelementptr inbounds nuw %struct.LOCKTAG, ptr %4, i32 0, i32 4
  store i8 10, ptr %22, align 2
  %23 = getelementptr inbounds nuw %struct.LOCKTAG, ptr %4, i32 0, i32 5
  store i8 2, ptr %23, align 1
  %24 = call i32 @LockAcquire(ptr noundef %4, i32 noundef 7, i1 noundef zeroext false, i1 noundef zeroext true)
  store i32 %24, ptr %5, align 4
  %25 = load i32, ptr %5, align 4
  %26 = icmp ne i32 %25, 0
  %27 = call i64 @BoolGetDatum(i1 noundef zeroext %26)
  call void @llvm.lifetime.end.p0(i64 4, ptr %5) #5
  call void @llvm.lifetime.end.p0(i64 16, ptr %4) #5
  call void @llvm.lifetime.end.p0(i64 8, ptr %3) #5
  ret i64 %27
}